; Function Attrs: mustprogress uwtable
define hidden noundef ptr @_Z28mk_solver_subsumption_tacticR11ast_managerRK10params_ref(ptr noundef nonnull align 8 dereferenceable(976) %0, ptr noundef nonnull align 8 dereferenceable(8) %1) local_unnamed_addr #3 personality ptr @__gxx_personality_v0 {
  %3 = tail call noalias noundef ptr @_ZN6memory8allocateEm(i64 noundef 40)
  %4 = getelementptr inbounds nuw i8, ptr %3, i64 8
  store i32 0, ptr %4, align 8, !tbaa !3
  store ptr getelementptr inbounds nuw inrange(-16, 192) (i8, ptr @_ZTV25solver_subsumption_tactic, i64 16), ptr %3, align 8, !tbaa !9
  %5 = getelementptr inbounds nuw i8, ptr %3, i64 16
  store ptr %0, ptr %5, align 8, !tbaa !11
  %6 = getelementptr inbounds nuw i8, ptr %3, i64 24
  tail call void @_ZN10params_refC1ERKS_(ptr noundef nonnull align 8 dereferenceable(8) %6, ptr noundef nonnull align 8 dereferenceable(8) %1)
  %7 = getelementptr inbounds nuw i8, ptr %3, i64 32
  store ptr null, ptr %7, align 8, !tbaa !14
  ret ptr %3
}